******************************************************************************
               TMS320C6x Linker PC v7.4.4                      
******************************************************************************
>> Linked Fri Nov 11 12:00:34 2022

OUTPUT FILE NAME:   <generate.out>
ENTRY POINT SYMBOL: "_c_int00"  address: 0001a420


MEMORY CONFIGURATION

         name            origin    length      used     unused   attr    fill
----------------------  --------  ---------  --------  --------  ----  --------
  IRAM                  00000000   00100000  0001e571  000e1a8f  RWIX
  SDRAM                 80000000   01000000  00000000  01000000  RWIX


SECTION ALLOCATION MAP

 output                                  attributes/
section   page    origin      length       input sections
--------  ----  ----------  ----------   ----------------
.vers      0    00000000    0000003c     COPY SECTION
                  00000000    0000003c     hellocfg.obj (.vers)

.prd       0    00000000    00000000     UNINITIALIZED

.hwi_vec   0    00000000    00000200     
                  00000000    00000200     hellocfg.obj (.hwi_vec)

.pinit     0    00000000    00000000     UNINITIALIZED

.text      0    00000200    0000aa80     
                  00000200    000009c0     aic23.obj (.text)
                  00000bc0    00000620     rts6400.lib : _printfi.obj (.text:__getarg_diouxp)
                  000011e0    000005c0                 : divd.obj (.text:__divd)
                  000017a0    00000520                 : cos.obj (.text:_cos)
                  00001cc0    000004e0                 : _printfi.obj (.text:__setfield)
                  000021a0    000004c0                 : _printfi.obj (.text:__printfi)
                  00002660    00000420                 : fputs.obj (.text:_fputs)
                  00002a80    00000400                 : acos.obj (.text:_acos)
                  00002e80    00000400                 : _printfi.obj (.text:_fcvt)
                  00003280    000003e0                 : _printfi.obj (.text:__pproc_fge)
                  00003660    000003e0     hello.obj (.text)
                  00003a40    000003c0     rts6400.lib : _printfi.obj (.text:_ecvt)
                  00003e00    000003a0     dsk6416bsl.lib : dsk6416.obj (.text)
                  000041a0    00000320     rts6400.lib : _printfi.obj (.text:__pconv_e)
                  000044c0    00000300                 : _printfi.obj (.text:__pproc_fwp)
                  000047c0    000002c0                 : imath64.obj (.text:__divull)
                  00004a80    000002c0                 : sqrt.obj (.text:_sqrt)
                  00004d40    000002a0                 : _printfi.obj (.text:__pproc_diouxp)
                  00004fe0    00000280                 : mpyd.obj (.text:__mpyd)
                  00005260    00000260                 : frcaddd.obj (.text:__frcaddd)
                  000054c0    00000260                 : _printfi.obj (.text:__pproc_str)
                  00005720    00000260                 : fputc.obj (.text:_fputc)
                  00005980    00000260     generate.obj (.text)
                  00005be0    00000240     rts6400.lib : addd.obj (.text:__addd)
                  00005e20    00000240                 : _printfi.obj (.text:__pconv_g)
                  00006060    00000240                 : ldexp.obj (.text:_ldexp)
                  000062a0    00000240                 : setvbuf.obj (.text:_setvbuf)
                  000064e0    00000200                 : trgdrv.obj (.text:_HOSTrename)
                  000066e0    00000200                 : _printfi.obj (.text:__mcpy)
                  000068e0    000001e0     csl6416.lib : csl_mcbsp.obj (.text:_MCBSP_reset)
                  00006ac0    000001e0                 : csl.obj (.text:__CSL_init)
                  00006ca0    000001e0     rts6400.lib : frexp.obj (.text:_frexp)
                  00006e80    000001a0                 : imath40.obj (.text:__divul)
                  00007020    000001a0     csl6416.lib : csl_irq.obj (.text:_mux2Tables)
                  000071c0    00000180     rts6400.lib : fseek.obj (.text:_fseek)
                  00007340    00000180                 : lowlev.obj (.text:_getdevice)
                  000074c0    00000180     dsk6416bsl.lib : dsk6416_led.obj (.text)
                  00007640    00000160     rts6400.lib : _printfi.obj (.text:__ltostr)
                  000077a0    00000160                 : round.obj (.text:__nround)
                  00007900    00000160                 : _printfi.obj (.text:__pproc_fflags)
                  00007a60    00000140                 : fclose.obj (.text:__closefile)
                  00007ba0    00000120                 : trgdrv.obj (.text:_HOSTlseek)
                  00007cc0    00000120     csl6416.lib : csl_timer.obj (.text:_TIMER_open)
                  00007de0    00000120                 : csl_timer.obj (.text:_TIMER_reset)
                  00007f00    00000120     rts6400.lib : frcmpyd.obj (.text:__frcmpyd)
                  00008020    00000120                 : _io_perm.obj (.text:__wrt_ok)
                  00008140    00000120                 : atoi.obj (.text:_atoi)
                  00008260    00000100                 : trgdrv.obj (.text:_HOSTopen)
                  00008360    00000100                 : trgdrv.obj (.text:_HOSTread)
                  00008460    00000100                 : trgdrv.obj (.text:_HOSTwrite)
                  00008560    00000100                 : divi.obj (.text:__divi)
                  00008660    00000100                 : frcmpyd_div.obj (.text:__frcmpyd_div)
                  00008760    00000100                 : strasg.obj (.text:__strasgi)
                  00008860    00000100                 : lowlev.obj (.text:_close)
                  00008960    00000100                 : fflush.obj (.text:_fflush)
                  00008a60    00000100                 : ltoa.obj (.text:_ltoa)
                  00008b60    00000100                 : memset.obj (.text:_memset)
                  00008c60    000000e0                 : trgdrv.obj (.text:_HOSTunlink)
                  00008d40    000000e0     csl6416.lib : csl_mcbsp.obj (.text:_MCBSP_open)
                  00008e20    000000e0                 : csl_mcbsp.obj (.text:_MCBSP_start)
                  00008f00    000000e0     rts6400.lib : cmpd.obj (.text:__cmpd)
                  00008fe0    000000e0                 : _printfi.obj (.text:__div)
                  000090c0    000000e0                 : fflush.obj (.text:__doflush)
                  000091a0    000000e0                 : _printfi.obj (.text:__pconv_f)
                  00009280    000000e0                 : memcpy64.obj (.text:_memcpy)
                  00009360    000000e0                 : modf.obj (.text:_modf)
                  00009440    000000e0                 : printf.obj (.text:_printf)
                  00009520    000000c0                 : trgdrv.obj (.text:_HOSTclose)
                  000095e0    000000c0     csl6416.lib : csl_mcbsp.obj (.text:_MCBSP_config)
                  000096a0    000000c0     rts6400.lib : fopen.obj (.text:__cleanup)
                  00009760    000000c0                 : divu.obj (.text:__divu)
                  00009820    000000c0                 : _printfi.obj (.text:__ecpy)
                  000098e0    000000c0                 : _printfi.obj (.text:__fcpy)
                  000099a0    000000c0                 : strasg.obj (.text:__strasg)
                  00009a60    000000c0                 : exit.obj (.text:_exit)
                  00009b20    000000c0                 : lowlev.obj (.text:_lseek)
                  00009be0    000000c0                 : lowlev.obj (.text:_write)
                  00009ca0    000000c0     bios.a64 : tsk_stup.o64 (.text)
                  00009d60    000000a0     csl6416.lib : csl_emifa.obj (.text:_EMIFA_config)
                  00009e00    000000a0                 : csl_emifb.obj (.text:_EMIFB_config)
                  00009ea0    000000a0                 : csl_mcbsp.obj (.text:_MCBSP_close)
                  00009f40    000000a0     rts6400.lib : imath40.obj (.text:__divli)
                  00009fe0    000000a0                 : fixdi.obj (.text:__fixdi)
                  0000a080    000000a0                 : fixdli.obj (.text:__fixdli)
                  0000a120    000000a0                 : renormd.obj (.text:__renormd)
                  0000a1c0    000000a0                 : lowlev.obj (.text:_finddevice)
                  0000a260    000000a0                 : rand.obj (.text:_rand)
                  0000a300    00000080     csl6416.lib : csl_irq.obj (.text:__IRQ_init)
                  0000a380    00000080     rts6400.lib : fltlid.obj (.text:__fltlid)
                  0000a400    00000080                 : llshift.obj (.text:__llshl)
                  0000a480    00000080                 : mpyll.obj (.text:__mpyll)
                  0000a500    00000080                 : memccpy.obj (.text:_memccpy)
                  0000a580    00000080                 : trgmsg.obj (.text:_readmsg)
                  0000a600    00000080                 : lowlev.obj (.text:_unlink)
                  0000a680    00000060                 : fltid.obj (.text:__fltid)
                  0000a6e0    00000060                 : llshift.obj (.text:__llshru)
                  0000a740    00000060                 : imath40.obj (.text:__remli)
                  0000a7a0    00000060                 : imath64.obj (.text:__subcull)
                  0000a800    00000060                 : trgmsg.obj (.text:_writemsg)
                  0000a860    00000060     dsk6416bsl.lib : dsk6416_dip.obj (.text)
                  0000a8c0    00000040     csl6416.lib : csl_irq.obj (.text:_IRQ_disable)
                  0000a900    00000040     rts6400.lib : isinf.obj (.text:___isinf)
                  0000a940    00000040                 : _printfi.obj (.text:___isnan)
                  0000a980    00000040                 : negd.obj (.text:__negd)
                  0000a9c0    00000040                 : subd.obj (.text:__subd)
                  0000aa00    00000020     csl6416.lib : csl.obj (.text:_CSL6416_LIB_)
                  0000aa20    00000020                 : csl_irq.obj (.text:_IRQ_clear)
                  0000aa40    00000020                 : csl_irq.obj (.text:_IRQ_enable)
                  0000aa60    00000020                 : csl_irq.obj (.text:_IRQ_globalDisable)
                  0000aa80    00000020                 : csl_irq.obj (.text:_IRQ_globalEnable)
                  0000aaa0    00000020                 : csl_irq.obj (.text:_IRQ_globalRestore)
                  0000aac0    00000020                 : csl_mcbsp.obj (.text:_MCBSP_read)
                  0000aae0    00000020                 : csl_mcbsp.obj (.text:_MCBSP_rrdy)
                  0000ab00    00000020                 : csl_mcbsp.obj (.text:_MCBSP_write)
                  0000ab20    00000020                 : csl_mcbsp.obj (.text:_MCBSP_xrdy)
                  0000ab40    00000020     rts6400.lib : negll.obj (.text:__negll)
                  0000ab60    00000020                 : _lock.obj (.text:__nop)
                  0000ab80    00000020                 : printf.obj (.text:__outc)
                  0000aba0    00000020                 : printf.obj (.text:__outs)
                  0000abc0    00000020                 : _lock.obj (.text:__register_lock)
                  0000abe0    00000020                 : _lock.obj (.text:__register_unlock)
                  0000ac00    00000020                 : trunc.obj (.text:__trunc)
                  0000ac20    00000020                 : exit.obj (.text:_abort)
                  0000ac40    00000020                 : remove.obj (.text:_remove)
                  0000ac60    00000020     csl6416.lib : csl_irq.obj (.text)

.IRAM$heap 
*          0    0000ac80    00008000     UNINITIALIZED
                  0000ac80    00008000     --HOLE--

.bios      0    00012c80    00004480     
                  00012c80    000005e0     bios.a64 : gbl_setL2CacheMode.o64 (.bios)
                  00013260    000004e0              : swi.o64 (.bios)
                  00013740    00000460              : gbl_cslcacheinit64.o64 (.bios)
                  00013ba0    00000460              : hwi_disp_asm.o64 (.bios)
                  00014000    000003a0              : prd.o64 (.bios)
                  000143a0    00000360              : malloc.o64 (.bios)
                  00014700    000002c0              : rta.o64 (.bios)
                  000149c0    00000280              : knl_run.o64 (.bios)
                  00014c40    00000260              : sem_pend.o64 (.bios)
                  00014ea0    00000240              : mem_free.o64 (.bios:.near)
                  000150e0    00000240              : pip.o64 (.bios)
                  00015320    00000220              : mem_allo.o64 (.bios:.near)
                  00015540    00000220              : knl_tick.o64 (.bios)
                  00015760    000001e0              : sem_dopo.o64 (.bios)
                  00015940    000001c0              : tsk_setu.o64 (.bios)
                  00015b00    000001c0     biosC6000.a64 : clk.o64 (.bios)
                  00015cc0    000001a0     bios.a64 : knl_swit.o64 (.bios)
                  00015e60    00000160              : autoinit.o64 (.bios)
                  00015fc0    00000160              : tsk_exit.o64 (.bios)
                  00016120    00000140              : tsk_stup.o64 (.bios)
                  00016260    00000120              : knl_chec.o64 (.bios)
                  00016380    000000e0              : sem_post_asm.o64 (.bios)
                  00016460    000000e0     biosC6000.a64 : clk_meas.o64 (.bios)
                  00016540    000000c0     bios.a64 : knl_exit.o64 (.bios)
                  00016600    000000c0     biosC6000.a64 : clk_htime.o64 (.bios)
                  000166c0    000000a0     bios.a64 : knl_ipos.o64 (.bios)
                  00016760    000000a0              : knl_post.o64 (.bios)
                  00016800    000000a0              : lck.o64 (.bios)
                  000168a0    000000a0              : sem_post.o64 (.bios)
                  00016940    000000a0              : sys_exit.o64 (.bios)
                  000169e0    00000080              : fxn.o64 (.bios)
                  00016a60    00000080              : idl_busy.o64 (.bios)
                  00016ae0    00000080              : log.o64 (.bios)
                  00016b60    00000080              : sts.o64 (.bios)
                  00016be0    00000080     biosC6000.a64 : idl_cal.o64 (.bios)
                  00016c60    00000060     bios.a64 : sys_erro.o64 (.bios:.near)
                  00016cc0    00000060              : hwi_c.o64 (.bios)
                  00016d20    00000060              : sem_pend_binary.o64 (.bios)
                  00016d80    00000060              : sem_pend_counting.o64 (.bios)
                  00016de0    00000060              : sys_abor.o64 (.bios)
                  00016e40    00000060              : utl_putc.o64 (.bios)
                  00016ea0    00000060     biosC6000.a64 : clk_start.o64 (.bios)
                  00016f00    00000040     bios.a64 : idl_stub.o64 (.bios)
                  00016f40    00000040              : rta_andn.o64 (.bios)
                  00016f80    00000040              : utl_doab.o64 (.bios)
                  00016fc0    00000040     biosC6000.a64 : clk_stop.o64 (.bios)
                  00017000    00000020     bios.a64 : fxn_c.o64 (.bios)
                  00017020    00000020              : gbl_vers.o64 (.bios)
                  00017040    00000020              : idl.o64 (.bios)
                  00017060    00000020              : log_printf.o64 (.bios)
                  00017080    00000020              : sts_set.o64 (.bios)
                  000170a0    00000020              : utl_doer.o64 (.bios)
                  000170c0    00000020              : utl_halt.o64 (.bios)
                  000170e0    00000020     lnknone.a64 : none.o64 (.bios)

.cinit     0    00017100    00001994     
                  00017100    000009cc     hellocfg.obj (.cinit)
                  00017acc    00000004     --HOLE-- [fill = 0]
                  00017ad0    0000027c     fir_filter.obj (.cinit)
                  00017d4c    00000004     --HOLE-- [fill = 0]
                  00017d50    0000026c     bios.a64 : biosdata.o64 (.cinit)
                  00017fbc    00000004     --HOLE-- [fill = 0]
                  00017fc0    000001a4              : knl.o64 (.cinit)
                  00018164    00000004     --HOLE-- [fill = 0]
                  00018168    0000012c     csl6416.lib : csl_irq.obj (.cinit)
                  00018294    00000004     --HOLE-- [fill = 0]
                  00018298    00000122     interp.obj (.cinit)
                  000183ba    00000006     --HOLE-- [fill = 0]
                  000183c0    000000b0     bios.a64 : swi.o64 (.cinit)
                  00018470    00000094     aic23.obj (.cinit)
                  00018504    00000004     --HOLE-- [fill = 0]
                  00018508    00000080     bios.a64 : tsk.o64 (.cinit)
                  00018588    0000007c     csl6416.lib : csl_mcbsp.obj (.cinit)
                  00018604    00000004     --HOLE-- [fill = 0]
                  00018608    00000068     rts6400.lib : acos.obj (.cinit)
                  00018670    00000060     bios.a64 : tsk_stup.o64 (.cinit)
                  000186d0    0000005c     csl6416.lib : csl_timer.obj (.cinit)
                  0001872c    00000004     --HOLE-- [fill = 0]
                  00018730    0000005c     rts6400.lib : defs.obj (.cinit)
                  0001878c    00000004     --HOLE-- [fill = 0]
                  00018790    0000005c                 : lowlev.obj (.cinit)
                  000187ec    00000004     --HOLE-- [fill = 0]
                  000187f0    0000004c     bios.a64 : rta.o64 (.cinit)
                  0001883c    00000004     --HOLE-- [fill = 0]
                  00018840    00000048     rts6400.lib : cos.obj (.cinit)
                  00018888    0000003c     csl6416.lib : csl.obj (.cinit)
                  000188c4    00000004     --HOLE-- [fill = 0]
                  000188c8    0000003c     hello.obj (.cinit)
                  00018904    00000004     --HOLE-- [fill = 0]
                  00018908    00000034     bios.a64 : hwi.o64 (.cinit)
                  0001893c    00000004     --HOLE-- [fill = 0]
                  00018940    0000002c              : utl_putc.o64 (.cinit)
                  0001896c    00000004     --HOLE-- [fill = 0]
                  00018970    0000002c     rts6400.lib : exit.obj (.cinit)
                  0001899c    00000004     --HOLE-- [fill = 0]
                  000189a0    00000024     bios.a64 : obj_init.o64 (.cinit)
                  000189c4    00000004     --HOLE-- [fill = 0]
                  000189c8    0000001c              : sys.o64 (.cinit)
                  000189e4    00000004     --HOLE-- [fill = 0]
                  000189e8    0000001c     rts6400.lib : _lock.obj (.cinit)
                  00018a04    00000004     --HOLE-- [fill = 0]
                  00018a08    00000018     bios.a64 : knl_tick.o64 (.cinit)
                  00018a20    00000010     rts6400.lib : rand.obj (.cinit)
                  00018a30    0000000c     bios.a64 : gbl_setL2CacheMode.o64 (.cinit)
                  00018a3c    00000004     --HOLE-- [fill = 0]
                  00018a40    0000000c              : idl_busy.o64 (.cinit)
                  00018a4c    00000004     --HOLE-- [fill = 0]
                  00018a50    0000000c              : knl_swit.o64 (.cinit)
                  00018a5c    00000004     --HOLE-- [fill = 0]
                  00018a60    0000000c     rts6400.lib : errno.obj (.cinit)
                  00018a6c    00000004     --HOLE-- [fill = 0]
                  00018a70    0000000c                 : fopen.obj (.cinit)
                  00018a7c    00000004     --HOLE-- [fill = 0]
                  00018a80    0000000a     generate.obj (.cinit)
                  00018a8a    00000006     --HOLE-- [fill = 0]
                  00018a90    00000004     (.pad.cinit) [fill = 0]

.args      0    00018a94    00000004     
                  00018a94    00000004     --HOLE-- [fill = 0]

.far       0    00018a98    000015c0     UNINITIALIZED
                  00018a98    00000510     fir_filter.obj (.far)
                  00018fa8    000004e0     interp.obj (.far)
                  00019488    00000324     rts6400.lib : defs.obj (.far)
                  000197ac    00000004     dsk6416bsl.lib : dsk6416.obj (.far)
                  000197b0    00000200     generate.obj (.far)
                  000199b0    0000011c     rts6400.lib : lowlev.obj (.far)
                  00019acc    00000004                 : errno.obj (.far)
                  00019ad0    00000100     csl6416.lib : csl_irq.obj (.far)
                  00019bd0    000000d8     bios.a64 : knl.o64 (.far)
                  00019ca8    000000c8     aic23.obj (.far)
                  00019d70    00000060     rts6400.lib : acos.obj (.far)
                  00019dd0    0000005c     bios.a64 : tsk.o64 (.far)
                  00019e2c    00000004     rts6400.lib : fopen.obj (.far)
                  00019e30    00000054     bios.a64 : obj_init.o64 (.far)
                  00019e84    00000002     dsk6416bsl.lib : dsk6416_led.obj (.far)
                  00019e86    00000002     --HOLE--
                  00019e88    00000054     csl6416.lib : csl_mcbsp.obj (.far)
                  00019edc    00000050     bios.a64 : tsk_stup.o64 (.far)
                  00019f2c    00000004     --HOLE--
                  00019f30    00000040     rts6400.lib : cos.obj (.far)
                  00019f70    00000030     csl6416.lib : csl_timer.obj (.far)
                  00019fa0    00000030     hello.obj (.far)
                  00019fd0    00000028     csl6416.lib : csl.obj (.far)
                  00019ff8    00000020     bios.a64 : sys.o64 (.far)
                  0001a018    00000010              : knl_tick.o64 (.far)
                  0001a028    0000000c              : utl_putc.o64 (.far)
                  0001a034    0000000c     rts6400.lib : exit.obj (.far)
                  0001a040    00000008                 : _lock.obj (.far)
                  0001a048    00000008                 : rand.obj (.far)
                  0001a050    00000008                 : trgdrv.obj (.far)

.clk       0    0001a058    00000008     UNINITIALIZED
                  0001a058    00000008     hellocfg.obj (.clk)

.sysinit   0    0001a060    00000500     
                  0001a060    00000300     hellocfg.obj (.sysinit)
                  0001a360    000000c0     bios.a64 : mem_init.o64 (.sysinit)
                  0001a420    000000a0              : boot.o64 (.sysinit)
                  0001a4c0    00000080              : tsk_init.o64 (.sysinit)
                  0001a540    00000020              : obj_init.o64 (.sysinit)

.trace     0    0001a560    00000200     
                  0001a560    00000200     --HOLE-- [fill = 00000000]

.sts       0    0001a760    00000090     
                  0001a760    00000090     hellocfg.obj (.sts)

.hst1      0    0001a7f0    00000010     UNINITIALIZED
                  0001a7f0    00000010     hellocfg.obj (.hst1)

.LOG_system$buf 
*          0    0001a800    00000800     UNINITIALIZED
                  0001a800    00000800     hellocfg.obj (.LOG_system$buf)

.trace$buf 
*          0    0001b000    00001000     UNINITIALIZED
                  0001b000    00001000     hellocfg.obj (.trace$buf)

.TSK_idle$stk 
*          0    0001c000    00000400     UNINITIALIZED
                  0001c000    00000400     hellocfg.obj (.TSK_idle$stk)

.TSK_loopback$stk 
*          0    0001c400    00000400     UNINITIALIZED
                  0001c400    00000400     hellocfg.obj (.TSK_loopback$stk)

.TSK_mute$stk 
*          0    0001c800    00000400     UNINITIALIZED
                  0001c800    00000400     hellocfg.obj (.TSK_mute$stk)

.TSK_printstat$stk 
*          0    0001cc00    00000400     UNINITIALIZED
                  0001cc00    00000400     hellocfg.obj (.TSK_printstat$stk)

.TSK_process$stk 
*          0    0001d000    00000400     UNINITIALIZED
                  0001d000    00000400     hellocfg.obj (.TSK_process$stk)

.stack     0    0001d400    00000400     UNINITIALIZED
                  0001d400    00000400     --HOLE--

.const     0    0001d800    000003a1     
                  0001d800    00000101     rts6400.lib : ctype.obj (.const:.string:__ctypes_)
                  0001d901    00000002                 : fputs.obj (.const:.string)
                  0001d903    00000001     --HOLE-- [fill = 0]
                  0001d904    000000c0     dsk6416bsl.lib : dsk6416.obj (.const)
                  0001d9c4    000000a4     hello.obj (.const:.string)
                  0001da68    00000070     aic23.obj (.const)
                  0001dad8    0000004e     bios.a64 : tsk_stup.o64 (.const)
                  0001db26    00000023     rts6400.lib : _printfi.obj (.const:.string)
                  0001db49    00000023     bios.a64 : utl_doab.o64 (.const)
                  0001db6c    00000022              : utl_doer.o64 (.const)
                  0001db8e    00000002     --HOLE-- [fill = 0]
                  0001db90    00000008     rts6400.lib : divd.obj (.const:.string:_initial_approx$1)
                  0001db98    00000004     bios.a64 : mem_allo.o64 (.const)
                  0001db9c    00000004              : mem_free.o64 (.const)
                  0001dba0    00000001              : tsk.o64 (.const)

.printf    0    0001dba1    000000bd     COPY SECTION
                  0001dba1    000000bd     hellocfg.obj (.printf)

.bss       0    0001dba4    00000354     UNINITIALIZED
                  0001dba4    00000100     bios.a64 : hwi_disp_asm.o64 (.bss)
                  0001dca4    000000cc              : biosdata.o64 (.bss)
                  0001dd70    0000009c              : swi.o64 (.bss)
                  0001de0c    00000048              : knl.o64 (.bss)
                  0001de54    00000028     hellocfg.obj (.bss)
                  0001de7c    0000001c     aic23.obj (.bss)
                  0001de98    00000018     bios.a64 : hwi.o64 (.bss)
                  0001deb0    0000000c              : tsk.o64 (.bss)
                  0001debc    0000000c     fir_filter.obj (.bss)
                  0001dec8    00000008     bios.a64 : clk_data.o64 (.bss)
                  0001ded0    00000008              : sys.o64 (.bss)
                  0001ded8    00000008     hello.obj (.bss)
                  0001dee0    00000006     interp.obj (.bss)
                  0001dee6    00000002     --HOLE--
                  0001dee8    00000004     bios.a64 : clk_data2.o64 (.bss)
                  0001deec    00000004              : gbl_setL2CacheMode.o64 (.bss)
                  0001def0    00000004              : idl_busy.o64 (.bss)
                  0001def4    00000004              : mem_asm.o64 (.bss)

.tsk       0    0001def8    000001e0     UNINITIALIZED
                  0001def8    000001e0     hellocfg.obj (.tsk)

.cio       0    0001e0d8    00000120     UNINITIALIZED
                  0001e0d8    00000120     rts6400.lib : trgmsg.obj (.cio)

.hst0      0    0001e1f8    00000100     UNINITIALIZED
                  0001e1f8    00000100     hellocfg.obj (.hst0)

.pip       0    0001e2f8    000000c8     UNINITIALIZED
                  0001e2f8    000000c8     hellocfg.obj (.pip)

.gblinit   0    0001e3c0    0000007c     
                  0001e3c0    0000007c     hellocfg.obj (.gblinit)

.sem       0    0001e43c    00000058     UNINITIALIZED
                  0001e43c    00000058     hellocfg.obj (.sem)

.log       0    0001e494    00000030     
                  0001e494    00000030     hellocfg.obj (.log)

.swi       0    0001e4c4    0000002c     UNINITIALIZED
                  0001e4c4    0000002c     hellocfg.obj (.swi)

.switch    0    0001e4f0    00000020     
                  0001e4f0    00000020     bios.a64 : gbl_setL2CacheMode.o64 (.switch)

.hst       0    0001e510    00000014     UNINITIALIZED
                  0001e510    00000014     hellocfg.obj (.hst)

.idl       0    0001e524    00000014     UNINITIALIZED
                  0001e524    00000014     hellocfg.obj (.idl)

.idlcal    0    0001e538    00000014     UNINITIALIZED
                  0001e538    00000014     hellocfg.obj (.idlcal)

.sys       0    0001e54c    00000010     UNINITIALIZED
                  0001e54c    00000010     hellocfg.obj (.sys)

.trcdata   0    0001e55c    0000000c     
                  0001e55c    0000000c     bios.a64 : trc.o64 (.trcdata)

.data      0    0001e568    00000008     
                  0001e568    00000008     lnknone.a64 : none.o64 (.data)

.mem       0    0001e570    00000004     UNINITIALIZED
                  0001e570    00000004     hellocfg.obj (.mem)


GLOBAL SYMBOLS: SORTED ALPHABETICALLY BY Name 

address    name
--------   ----
0001dba4   $bss
0001dba4   .bss
0001e568   .data
00000200   .text
0001a238   BIOS$$CLKOFF
0001a1f8   BIOS$$CLKON
0001a060   BIOS_init
0001a2a0   BIOS_start
00000000   BUF$
00000001   BUF_ENABLED
0000ac20   C$$EXIT
0000a858   C$$IO$$
00000001   CLK$
0001a058   CLK_A_TABBEG
00000001   CLK_CALDIV
00000008   CLK_CALMULT
00015f90   CLK_COUNTSPMS
00000001   CLK_COUNTSPMSHIGH
0001dccc   CLK_D_idletime
0001dcc8   CLK_D_isrhook
0001dcc4   CLK_D_tabbeg
0001dcc0   CLK_D_timefxn
00016600   CLK_F_getfhtime
00016620   CLK_F_gethtime
00015b00   CLK_F_getltime
00016620   CLK_F_getshtime
00015b14   CLK_F_isr
00015c64   CLK_F_itime
01940000   CLK_HIRESREGS
00013ba0   CLK_HOOKFXN
00000001   CLK_HTIMEDIV
00000008   CLK_HTIMEMULT
00002328   CLK_HTIMEPERLTIME
00004000   CLK_INTBIT
00000001   CLK_LTIMEDIV
00011940   CLK_LTIMEMULT
00000064   CLK_MICROSECS
00002328   CLK_PRD
00000000   CLK_PRDHIGH
01940000   CLK_REGS
0001dcbc   CLK_R_time
00000020   CLK_TCR
00000000   CLK_TDDR
00000000   CLK_TDDRHIGH
00016620   CLK_TIMEFXN
00000000   CLK_TIMERNUM
00000001   CLK_USETIMER
0001a05c   CLK_null
00000000   DEV$
00000000   DGN$
00000000   DHL$
00000000   DHL_gChannelsAvailable
00000000   DIO$
00000000   DIO_NUMSWIBASE
00000000   DIO_NUMTSKBASE
00000000   DIO_STATIC
00000000   DPI$
000169e0   FXN_F_nop
000169e8   FXN_F_run
00016a38   FXN_F_zero
00000001   GBL$
00005205   GBL_A_VERSION
00000000   GBL_BIGENDIAN
00000000   GBL_C641XL2PRIORITY
00000000   GBL_CACHE
00000001   GBL_CALLCSLCFGINIT
00004e20   GBL_CLKIN
00001770   GBL_CLKTYPE
00001900   GBL_DSPSUBTYPE
0000003e   GBL_DSPTYPE
00000001   GBL_ENABLEINST
00000042   GBL_FOOTPRINT
000afc80   GBL_FREQ
00002226   GBL_L2ALLOC
00000000   GBL_L2CONFIGALLOC
00000001   GBL_L2CONFIGURE
00000000   GBL_L2MARMASK
00000000   GBL_L2MARMASK1
00000000   GBL_L2MARMASK2
00000000   GBL_L2MARMASK3
00000000   GBL_L2MARMASK4
00000000   GBL_L2MARMASK5
00000000   GBL_L2MODE
00000000   GBL_L2PRIORITY
00000000   GBL_NULL
00000000   GBL_PROCID
00000000   GBL_ROM
00000000   GBL_SUPPORTCSL
0000dbef   GBL_TRCMASKVALUE
00000000   GBL_USERINIT
00017000   GBL_USERINITFXN
00000001   GBL_boot
0001e564   GBL_initdone
0001d400   GBL_stackbeg
0001d7ff   GBL_stackend
00000000   GIO$
00017000   GIO_CREATEFXN
00017000   GIO_DELETEFXN
00017000   GIO_PENDFXN
00017000   GIO_POSTFXN
00000000   HOOK$
00000000   HOOK_KNLID
00000001   HST$
0001e510   HST_A_TABBEG
0001e524   HST_A_TABEND
00000000   HST_DSM
0001de60   HST_DSMBUFSEG
00000400   HST_DSMMEMSIZE
0001dd38   HST_D_chanmask
0001dd3c   HST_D_tabbeg
0001dd40   HST_D_tabend
000000ff   HST_MAXFRAMEALLOWED
00000040   HST_MAXFRAMESET
00000001   HST_NONE
00000000   HST_RTDX
00000001   HWI$
00000000   HWI_A_VECS
00005800   HWI_CFGDISPATCHED
0001dea8   HWI_D_bss
0001deac   HWI_D_ccmask
0001de98   HWI_D_spsave
00013ba0   HWI_F_dispatch
00000000   HWI_GENERATE_RESET_VEC
0000000a   HWI_INT10
00000000   HWI_INT10$hwi
0000000b   HWI_INT11
00000000   HWI_INT11$hwi
0000000c   HWI_INT12
00000000   HWI_INT12$hwi
0000000d   HWI_INT13
00000000   HWI_INT13$hwi
0000000e   HWI_INT14
00000000   HWI_INT14$hwi
0000000f   HWI_INT15
00000000   HWI_INT15$hwi
00000004   HWI_INT4
00000000   HWI_INT4$hwi
00000005   HWI_INT5
00000000   HWI_INT5$hwi
00000006   HWI_INT6
00000000   HWI_INT6$hwi
00000007   HWI_INT7
00000000   HWI_INT7$hwi
00000008   HWI_INT8
00000000   HWI_INT8$hwi
00000009   HWI_INT9
00000000   HWI_INT9$hwi
08204653   HWI_INTRMULTHIGH
310718a4   HWI_INTRMULTLOW
00000001   HWI_NMI
00000000   HWI_NMI$hwi
00000000   HWI_POLARITYMASK
00000002   HWI_RESERVED0
00000000   HWI_RESERVED0$hwi
00000003   HWI_RESERVED1
00000000   HWI_RESERVED1$hwi
00000000   HWI_RESET
00000000   HWI_RESET$hwi
00000001   HWI_ZEROTAB
00000001   IDL$
0001e538   IDL_A_CALBEG
0001e524   IDL_A_TABBEG
00000006   IDL_CALIBRERROR
00016f00   IDL_CALIBRFXN
0001def0   IDL_D_busyObj
0001dcac   IDL_D_calbeg
0001dca8   IDL_D_calibrate
0001dca4   IDL_D_tabbeg
0001e534   IDL_END
0001e548   IDL_END$
00016a60   IDL_F_busy
00016be0   IDL_F_calibrate
00017040   IDL_F_loop
00016f00   IDL_F_stub
00000001   IDL_USECLKIDLTIME
0001a7c4   IDL_busyObj
0001dc43   IDL_busyObj$avgfmt
00000001   IDL_busyObj$filter
00000001   IDL_busyObj$iA
00000000   IDL_busyObj$iB
00000001   IDL_busyObj$iC
0001dc3d   IDL_busyObj$maxfmt
00000000   IDL_busyObj$operation
0001a7c0   IDL_busyObj$stsobj
0001dc40   IDL_busyObj$sumfmt
00000002   IDL_busyObj$unittype
0001e524   IDL_cpuLoad
0001e538   IDL_cpuLoad$
0001e530   IDL_live
0001e544   IDL_live$
0001de60   IRAM
0000ac80   IRAM$B
00008000   IRAM$L
00000001   ISRC$
00015e18   KNL_glue
0001e4c4   KNL_swi
00000001   KNL_swi$dorta
00000000   KNL_swi$ord
00000000   KNL_swi$pri
0001a764   KNL_swi$sts
0001dbb1   KNL_swi$sts$avgfmt
00000002   KNL_swi$sts$filter
00000001   KNL_swi$sts$filtmaxmult
00000001   KNL_swi$sts$filtsummult
0001dba1   KNL_swi$sts$maxfmt
0001a760   KNL_swi$sts$stsobj
0001dba9   KNL_swi$sts$sumfmt
00000000   KNL_swi$sts$unittype
00000000   KNL_swi$swi
00000001   LCK$
000170e8   LNK_F_dataPump
000170e0   LNK_F_init
0001e528   LNK_dataPump
0001e53c   LNK_dataPump$
0001e56c   LNK_dspFrameReadyMask
0001e568   LNK_dspFrameRequestMask
00000001   LOG$
0001e494   LOG_A_TABBEG
0001e4c4   LOG_A_TABEND
00000002   LOG_A_TABLEN
0001dcb0   LOG_D_system
00000001   LOG_ENABLED
00016ae0   LOG_F_event
0001e494   LOG_system
0001a800   LOG_system$buf
00000000   LOG_system$datatype
00000000   LOG_system$log
00000200   LOG_system$size
00000000   MBX$
00000001   MEM$
0001de60   MEM_MALLOCSEG
00000000   MEM_NULL
0001de60   MEM_SEGZERO
00000000   MEM_USEMPC
00000001   MEM_gNumHeap
00000000   MSGQ$
00000000   MSGQ_USEMSGQ
00000000   OBJ$
00000000   PIP$
0001e2f8   PIP_A_TABBEG
0001e3c0   PIP_A_TABEND
00000002   PIP_A_TABLEN
0001dcb4   PIP_D_tabbeg
0001dcb8   PIP_D_tablen
00015174   PIP_F_give
00015174   PIP_F_probe
00015248   PIP_F_start
000150e0   PIP_F_take
00000064   PIP_OBJSIZE
00000000   PIP_gNextId
00000002   PIP_gNumEmbed
00000000   POOL$
00000000   POOL_USEPOOL
00000001   PRD$
00000000   PRD_A_TABBEG
00000000   PRD_A_TABEND
00000000   PRD_A_TABLEN
0001dcf4   PRD_D_cur
0001dcf8   PRD_D_elapsed
0001dcfc   PRD_D_prevtim
0001dd00   PRD_D_scalar
0001dd04   PRD_D_swihandle
0001dd08   PRD_D_tabbeg
0001dd0c   PRD_D_tablen
0001dd10   PRD_D_thook
0001dcf0   PRD_D_tick
00014000   PRD_F_swi
000142b8   PRD_F_tick
00004000   PRD_SCALAR
00000000   PRD_SWIHANDLE
00015740   PRD_THOOKFXN
0001a058   PRD_clock
00000001   QUE$
0001dd14   RTA_D_fromHost
0001dd1c   RTA_D_logval
0001dd2c   RTA_D_stsval
0001dd18   RTA_D_toHost
00016f40   RTA_F_andn
000147f8   RTA_F_dispatch
00014700   RTA_F_getlog
00014744   RTA_F_getsts
00016f60   RTA_F_or
0001478c   RTA_F_readblk
000147b8   RTA_F_resetmem
000147ac   RTA_F_writeword
0001e52c   RTA_dispatcher
0001e540   RTA_dispatcher$
00014848   RTA_execute
0001e514   RTA_fromHost
0001a7f0   RTA_fromHost$buf
00000004   RTA_fromHost$framesize
00000000   RTA_fromHost$hst
00000001   RTA_fromHost$id
00000000   RTA_fromHost$mode
0001e2f8   RTA_fromHost$pipe
0001e328   RTA_fromHost$pipe$aaa
0001e358   RTA_fromHost$pipe$bbb
0001de64   RTA_fromHost$pipe$dtab
0001e2fc   RTA_fromHost$pipe$rd
0001e32c   RTA_fromHost$pipe$wr
0001e51c   RTA_toHost
0001e1f8   RTA_toHost$buf
00000040   RTA_toHost$framesize
00000000   RTA_toHost$hst
00000000   RTA_toHost$id
00000001   RTA_toHost$mode
0001e35c   RTA_toHost$pipe
0001e38c   RTA_toHost$pipe$aaa
0001e3bc   RTA_toHost$pipe$bbb
0001de70   RTA_toHost$pipe$dtab
0001e360   RTA_toHost$pipe$rd
0001e390   RTA_toHost$pipe$wr
00000000   RTDX$
00000408   RTDX_BUFMEMSIZE
0001de60   RTDX_DATAMEMSEG
00000000   RTDX_MODE
00000000   RTDX_USERTDX
00000000   RTDX_USERTEXECUTION
ffffffff   SDRAM
00000001   SEM$
0001e448   SEM_rcv
0001e474   SEM_xmt
00000000   SIO$
00000001   STS$
0001a760   STS_A_TABBEG
0001a7f0   STS_A_TABEND
00016b98   STS_F_add
00016b60   STS_F_delta
00016bc4   STS_F_reset
0001a7d4   STS_left
0001dc4e   STS_left$avgfmt
00000001   STS_left$filter
00000001   STS_left$iA
00000000   STS_left$iB
00000001   STS_left$iC
0001dc48   STS_left$maxfmt
00000001   STS_left$operation
0001a7d0   STS_left$stsobj
0001dc4b   STS_left$sumfmt
00000000   STS_left$unittype
0001a7e4   STS_right
0001dc59   STS_right$avgfmt
00000001   STS_right$filter
00000001   STS_right$iA
00000000   STS_right$iB
00000001   STS_right$iC
0001dc53   STS_right$maxfmt
00000001   STS_right$operation
0001a7e0   STS_right$stsobj
0001dc56   STS_right$sumfmt
00000000   STS_right$unittype
00000001   SWI$
0001e4c4   SWI_A_TABBEG
0001e4f0   SWI_A_TABEND
00000001   SWI_A_TABLEN
0001dd88   SWI_D_curfxn
0001dd78   SWI_D_curmask
0001dd84   SWI_D_curmbox
0001dd7c   SWI_D_curset
0001dd74   SWI_D_execaddr
0001dd90   SWI_D_inswi
0001dd80   SWI_D_lock
0001dd8c   SWI_D_rdybeg
0001dd94   SWI_D_rdytab
0001dd70   SWI_D_runaddr
00000000   SWI_EHOOKFXN
00013448   SWI_EXECFXN
00013260   SWI_F_enable
00013448   SWI_F_exec
00013470   SWI_F_iexec
000132d0   SWI_F_post
000134f8   SWI_F_run
00000000   SWI_IHOOKFXN
000134f8   SWI_RUNFXN
00000001   SYS$
0001e54c   SYS$config
00016f80   SYS_ABORTFXN
000170a0   SYS_ERRORFXN
000170c0   SYS_EXITFXN
00016e40   SYS_PUTCFXN
0001e560   TRC_R_mask
0001e55c   TRC_cinit
00000001   TSK$
00000000   TSK_NUM_HOOKS
00000001   TSK_PRIORITY
00000000   TSK_READYFXN
00000000   TSK_STACKSEG
00000400   TSK_STACKSIZE
00000000   TSK_SWITCHFXN
00017000   TSK_VCREATEFXN
00017000   TSK_VDELETEFXN
00017000   TSK_VEXITFXN
0001df04   TSK_idle
00000001   TSK_idle$ord
00000000   TSK_idle$pri
0001c000   TSK_idle$stack
0001c398   TSK_idle$stkptr
0001a774   TSK_idle$sts
0001dbcb   TSK_idle$sts$avgfmt
00000002   TSK_idle$sts$filter
00000001   TSK_idle$sts$filtmaxmult
00000001   TSK_idle$sts$filtsummult
0001dbbb   TSK_idle$sts$maxfmt
0001a770   TSK_idle$sts$stsobj
0001dbc3   TSK_idle$sts$sumfmt
00000000   TSK_idle$sts$unittype
00000000   TSK_idle$tsk
0001dfc4   TSK_loopback
00000003   TSK_loopback$ord
00000001   TSK_loopback$pri
0001c400   TSK_loopback$stack
0001c798   TSK_loopback$stkptr
0001a794   TSK_loopback$sts
0001dbff   TSK_loopback$sts$avgfmt
00000002   TSK_loopback$sts$filter
00000001   TSK_loopback$sts$filtmaxmult
00000001   TSK_loopback$sts$filtsummult
0001dbef   TSK_loopback$sts$maxfmt
0001a790   TSK_loopback$sts$stsobj
0001dbf7   TSK_loopback$sts$sumfmt
00000000   TSK_loopback$sts$unittype
00000000   TSK_loopback$tsk
0001df64   TSK_mute
00000002   TSK_mute$ord
00000001   TSK_mute$pri
0001c800   TSK_mute$stack
0001cb98   TSK_mute$stkptr
0001a784   TSK_mute$sts
0001dbe5   TSK_mute$sts$avgfmt
00000002   TSK_mute$sts$filter
00000001   TSK_mute$sts$filtmaxmult
00000001   TSK_mute$sts$filtsummult
0001dbd5   TSK_mute$sts$maxfmt
0001a780   TSK_mute$sts$stsobj
0001dbdd   TSK_mute$sts$sumfmt
00000000   TSK_mute$sts$unittype
00000000   TSK_mute$tsk
0001e084   TSK_printstat
00000006   TSK_printstat$ord
00000001   TSK_printstat$pri
0001cc00   TSK_printstat$stack
0001cf98   TSK_printstat$stkptr
0001a7b4   TSK_printstat$sts
0001dc33   TSK_printstat$sts$avgfmt
00000002   TSK_printstat$sts$filter
00000001   TSK_printstat$sts$filtmaxmult
00000001   TSK_printstat$sts$filtsummult
0001dc23   TSK_printstat$sts$maxfmt
0001a7b0   TSK_printstat$sts$stsobj
0001dc2b   TSK_printstat$sts$sumfmt
00000000   TSK_printstat$sts$unittype
00000000   TSK_printstat$tsk
0001e024   TSK_process
00000004   TSK_process$ord
00000002   TSK_process$pri
0001d000   TSK_process$stack
0001d398   TSK_process$stkptr
0001a7a4   TSK_process$sts
0001dc19   TSK_process$sts$avgfmt
00000002   TSK_process$sts$filter
00000001   TSK_process$sts$filtmaxmult
00000001   TSK_process$sts$filtsummult
0001dc09   TSK_process$sts$maxfmt
0001a7a0   TSK_process$sts$stsobj
0001dc11   TSK_process$sts$sumfmt
00000000   TSK_process$sts$unittype
00000000   TSK_process$tsk
00000000   UDEV$
000009ec   _AIC23_CloseCodec
00000850   _AIC23_Config
0001de7c   _AIC23_ControlHnd
0001de80   _AIC23_DataHnd
00000320   _AIC23_Loopback
0000037c   _AIC23_Mute
00000a3c   _AIC23_OpenCodec
000003d8   _AIC23_OutGain
0000045c   _AIC23_PowerDown
00000608   _AIC23_Read
000004a4   _AIC23_SetFreq
00000778   _AIC23_Write
00000964   _AIC23_initIrq
00000568   _AIC23_rcvIsr
000008dc   _AIC23_termIrq
000006d4   _AIC23_xmtIsr
0001a060   _BIOS_init
0001a2a0   _BIOS_start
00015f90   _CLK_COUNTSPMS
0001dec8   _CLK_DFLTMICROSECS
0001dcec   _CLK_D_countspms
0001dce0   _CLK_D_dirty
0001decc   _CLK_D_microseconds
0001dce4   _CLK_D_prd
0001dce8   _CLK_D_tddr
00015c64   _CLK_F_itime
00002328   _CLK_PRD
01940000   _CLK_REGS
00000000   _CLK_TDDR
00000000   _CLK_TIMERNUM
00000001   _CLK_USETIMER
0001dcd0   _CLK_htimeDiv
0001dcd4   _CLK_htimeMult
0001dee8   _CLK_htimePerLtime
00015c64   _CLK_itime
0001dcd8   _CLK_ltimeDiv
0001dcdc   _CLK_ltimeMult
00016460   _CLK_measure
00016ea0   _CLK_start
00016fc0   _CLK_stop
0000aa00   _CSL6416_LIB_
0000a864   _DSK6416_DIP_get
0000a860   _DSK6416_DIP_init
000074c0   _DSK6416_LED_init
00007500   _DSK6416_LED_off
00007564   _DSK6416_LED_on
000075c8   _DSK6416_LED_toggle
000040e4   _DSK6416_getVersion
00003e00   _DSK6416_init
00003fd4   _DSK6416_rget
00004004   _DSK6416_rset
000197ac   _DSK6416_version
00004040   _DSK6416_wait
000040a0   _DSK6416_waitusec
00009d60   _EMIFA_config
00009e00   _EMIFB_config
00017000   _FXN_F_nop
000169e8   _FXN_F_run
00016a38   _FXN_F_zero
00000000   _GBL_CACHE
0001dd48   _GBL_clkIn
00013740   _GBL_cslCacheInit64
0001dd4c   _GBL_freq
00017020   _GBL_getVersion
0001dd44   _GBL_procId
00009520   _HOSTclose
00007ba0   _HOSTlseek
00008260   _HOSTopen
00008360   _HOSTread
000064e0   _HOSTrename
00008c60   _HOSTunlink
00008460   _HOSTwrite
0001e510   _HST_A_TABBEG
0001e524   _HST_A_TABEND
00005800   _HWI_CFGDISPATCHED
0001dea4   _HWI_D_inhwi
0001de98   _HWI_D_spsave
00013ba0   _HWI_F_dispatch
0000000a   _HWI_INT10
0000000b   _HWI_INT11
0000000c   _HWI_INT12
0000000d   _HWI_INT13
0000000e   _HWI_INT14
0000000f   _HWI_INT15
00000004   _HWI_INT4
00000005   _HWI_INT5
00000006   _HWI_INT6
00000007   _HWI_INT7
00000008   _HWI_INT8
00000009   _HWI_INT9
00000001   _HWI_NMI
00000002   _HWI_RESERVED0
00000003   _HWI_RESERVED1
00000000   _HWI_RESET
0001d7f8   _HWI_STKBOTTOM
0001d400   _HWI_STKTOP
0001de98   _HWI_data
00016cc0   _HWI_disable
0001dba4   _HWI_dispatchTab
00016cd8   _HWI_enable
00016cec   _HWI_restore
0001a7c4   _IDL_busyObj
0001e524   _IDL_cpuLoad
0001e530   _IDL_live
00017040   _IDL_loop
0001de60   _IRAM
0000ac80   _IRAM_base
00008000   _IRAM_length
0000aa20   _IRQ_clear
0000a8c0   _IRQ_disable
0000aa40   _IRQ_enable
0000aa60   _IRQ_globalDisable
0000aa80   _IRQ_globalEnable
0000aaa0   _IRQ_globalRestore
0001de14   _KNL_alarm
00016260   _KNL_check
0001de38   _KNL_curqueue
0001de28   _KNL_curtask
0001de30   _KNL_curtime
00019c70   _KNL_dummy
00016580   _KNL_enter
00016540   _KNL_exit
0001632c   _KNL_idle
0001de50   _KNL_idlefxn
0001de1c   _KNL_inactive
000166c0   _KNL_ipost
00016350   _KNL_max
0001de3c   _KNL_maxqueue
00016760   _KNL_post
0001de2c   _KNL_prevtask
0001de20   _KNL_priority
00019bd0   _KNL_queues
000149c0   _KNL_run
00015cc0   _KNL_saveIsrFrame
0001de24   _KNL_set
0001de18   _KNL_setpri
0001e4c4   _KNL_swi
0001de34   _KNL_swiptr
00015d70   _KNL_switch
0001de44   _KNL_tcreatefxn
0001de48   _KNL_tdeletefxn
00015740   _KNL_tick
0001de4c   _KNL_treadyfxn
0001de40   _KNL_tswitchfxn
0001de0c   _KNL_wFlag
0001de10   _KNL_wList
0001682c   _LCK_pend
00016800   _LCK_post
0001e528   _LNK_dataPump
0001e494   _LOG_A_TABBEG
0001e4c4   _LOG_A_TABEND
00000002   _LOG_A_TABLEN
0001dcb0   _LOG_D_system
00016ae0   _LOG_event
00017060   _LOG_printf
0001e494   _LOG_system
00009ea0   _MCBSP_close
000095e0   _MCBSP_config
00008d40   _MCBSP_open
0000aac0   _MCBSP_read
000068e0   _MCBSP_reset
0000aae0   _MCBSP_rrdy
00008e20   _MCBSP_start
0000ab00   _MCBSP_write
0000ab20   _MCBSP_xrdy
0001def4   _MEM
0001dd50   _MEM_D_NUMSEGMENTS
0001dd58   _MEM_D_freelist
0001dd5c   _MEM_D_lockaddr
0001dd54   _MEM_D_memtab
0001dd60   _MEM_D_unlockaddr
00015320   _MEM_alloc
00014ea0   _MEM_free
0001a360   _MEM_init
0001de54   _MEM_memtab
0001a540   _OBJ_init
00019e68   _OBJ_segtab
00019e30   _OBJ_table
0001e2f8   _PIP_A_TABBEG
0001e3c0   _PIP_A_TABEND
0001dcf0   _PRD_D_tick
0001a058   _PRD_clock
0001e52c   _RTA_dispatcher
0001e514   _RTA_fromHost
0001e51c   _RTA_toHost
ffffffff   _SDRAM
0001de60   _SEG0
00016d80   _SEM_pend
00016d20   _SEM_pendBinary
00014c40   _SEM_pendEnterKnl
00016380   _SEM_post
00016380   _SEM_postBinary
000168a0   _SEM_postEnterKnl
0001e448   _SEM_rcv
0001e474   _SEM_xmt
0001a760   _STS_A_TABBEG
0001a7f0   _STS_A_TABEND
00016b98   _STS_add
00016b60   _STS_delta
0001a7d4   _STS_left
00016bc4   _STS_reset
0001a7e4   _STS_right
00017080   _STS_set
0001dd88   _SWI_D_curfxn
0001dd78   _SWI_D_curmask
0001dd7c   _SWI_D_curset
0001dd74   _SWI_D_execaddr
0001dd90   _SWI_D_inswi
0001dd80   _SWI_D_lock
0001dd8c   _SWI_D_rdybeg
0001dd70   _SWI_D_runaddr
0001dd70   _SWI_data
000132d0   _SWI_post
0001dd64   _SYS
0001a560   _SYS_PUTCBEG
0001a75f   _SYS_PUTCEND
00016de0   _SYS_abort
00016c60   _SYS_error
00016940   _SYS_exit
00019ff8   _SYS_exitStack
0001ded0   _SYS_exitStackPtr
0001ded4   _SYS_exitStackTop
00007cc0   _TIMER_open
00007de0   _TIMER_reset
0001e560   _TRC_R_mask
0001deb8   _TSK
00019dd0   _TSK_ATTRS
00019dec   _TSK_config
00015fc0   _TSK_exit
0001df04   _TSK_idle
0001a4c0   _TSK_init
0001dfc4   _TSK_loopback
0001df64   _TSK_mute
0001deb0   _TSK_nTasks
0001deb4   _TSK_pid
0001e084   _TSK_printstat
0001e024   _TSK_process
00015940   _TSK_setup
000161c8   _TSK_startup
00019e0c   _TSK_timerSem
00016f80   _UTL_doAbort
000170a0   _UTL_doError
00016e40   _UTL_doPutc
000170c0   _UTL_halt
0001e0d8   __CIOBUF_
00015c80   __CLK_lat1beg
00015cac   __CLK_lat1end
00006ac0   __CSL_init
00013114   __GBL_setL2CacheMode
0001dd6c   __HOOK_NUMHOOKS
0001dd68   __HOOK_knlId
00013ba0   __HWI_lat1beg
00013d0c   __HWI_lat1end
00013d0c   __HWI_lat2beg
00013eb8   __HWI_lat2end1
00013e44   __HWI_lat2end2
00013ed0   __HWI_lat3beg
00013fe0   __HWI_lat3end1
00013e74   __HWI_lat3end2
00016a60   __IDL_lat1beg
00016ab0   __IDL_lat1end
00019bc8   __IRQ_dispatchTable
00019b00   __IRQ_eventTable
0000ac60   __IRQ_hookFetchPacket
0000a300   __IRQ_init
00019b88   __IRQ_intTable
000162ac   __KNL_lat1beg
0001632c   __KNL_lat1end
00016ae0   __LOG_lat1beg
00019ed0   __MCBSP_hDev0
00019ed4   __MCBSP_hDev1
00019ed8   __MCBSP_hDev2
00019f04   __MEM_mutex
000147b8   __RTA_lat1beg
000147f0   __RTA_lat1end
00015760   __SEM_dopost
0001d800   __STACK_END
00000400   __STACK_SIZE
000133dc   __SWI_lat1beg
00013488   __SWI_lat1end
0001348c   __SWI_lat2beg
000134f4   __SWI_lat2end
00013260   __SWI_lat3beg
000132cc   __SWI_lat3end
00019f70   __TIMER_deviceTable
00019f9c   __TIMER_hBios
00019f94   __TIMER_hDev0
00019f98   __TIMER_hDev1
00019edc   __TSK_mutex
0001a03c   ___TI_enable_exit_profile_output
ffffffff   ___TI_pprof_out_hndl
ffffffff   ___TI_prof_data_size
ffffffff   ___TI_prof_data_start
ffffffff   ___binit__
0001dba4   ___bss__
ffffffff   ___c_args__
00017100   ___cinit__
0001e568   ___data__
0001e570   ___edata__
0001def8   ___end__
0000ac80   ___etext__
0000a900   ___isinf
ffffffff   ___pinit__
00000200   ___text__
00005be0   __addd
00015e60   __auto_init
00008560   __c6xabi_divi
00009760   __c6xabi_divu
00008760   __c6xabi_strasgi
000096a0   __cleanup
0001a034   __cleanup_ptr
00007a60   __closefile
00008f00   __cmpd
0001d800   __ctypes_
000011e0   __divd
00008560   __divi
00009f40   __divli
00009760   __divu
00006e80   __divul
000047c0   __divull
000090c0   __doflush
0001a038   __dtors_ptr
00009fe0   __fixdi
0000a080   __fixdli
0000a680   __fltid
0000a380   __fltlid
00005260   __frcaddd
00007f00   __frcmpyd
00008660   __frcmpyd_div
000197a8   __ft_end
00019488   __ftable
0000a400   __llshl
0000a6e0   __llshru
0001a040   __lock
00004fe0   __mpyd
0000a480   __mpyll
0000a980   __negd
0000ab40   __negll
0000ab60   __nop
000077a0   __nround
000021a0   __printfi
0000abc0   __register_lock
0000abe0   __register_unlock
0000a740   __remli
0000a120   __renormd
0001d400   __stack
000099a0   __strasg
00008760   __strasgi
0000a7a0   __subcull
0000a9c0   __subd
00019668   __tmpnams
0000ac00   __trunc
0001a044   __unlock
00008020   __wrt_ok
0000ac20   _abort
00002a80   _acos
00008140   _atoi
0001a420   _c_int00
00014670   _calloc
00008860   _close
000017a0   _cos
00005b94   _cos_table
000197b0   _cosine
00005bb4   _coupled
00019acc   _errno
00009a60   _exit
00008960   _fflush
00005720   _fputc
00002660   _fputs
000143a0   _free
00006ca0   _frexp
000071c0   _fseek
0001de94   _gie
00003908   _idlLive
00005980   _init_cos
00006060   _ldexp
00009b20   _lseek
00008a60   _ltoa
0000394c   _main
000143cc   _malloc
00014544   _memalign
0000a500   _memccpy
00009280   _memcpy
00008b60   _memset
00009360   _modf
00009440   _printf
00005720   _putc
0000a260   _rand
00019cf0   _rcvBuffer
0001de84   _rcvRead
0001de88   _rcvWrite
0000a580   _readmsg
00014440   _realloc
0000ac40   _remove
000062a0   _setvbuf
00004a80   _sqrt
0001e4ac   _trace
00003804   _tskCheck
00003698   _tskProcess
00003764   _tskStat
0000a600   _unlink
00009be0   _write
0000a800   _writemsg
00019d30   _xmtBuffer
0001de8c   _xmtRead
0001de90   _xmtWrite
ffffffff   binit
00017100   cinit
0001e570   edata
0001def8   end
0000ac80   etext
00000000   hwi0
00000020   hwi1
00000140   hwi10
00000160   hwi11
00000180   hwi12
000001a0   hwi13
000001c0   hwi14
000001e0   hwi15
00000040   hwi2
00000060   hwi3
00000080   hwi4
000000a0   hwi5
000000c0   hwi6
000000e0   hwi7
00000100   hwi8
00000120   hwi9
ffffffff   pinit
0001e4ac   trace
0001b000   trace$buf
00000001   trace$datatype
00000000   trace$log
00000400   trace$size


GLOBAL SYMBOLS: SORTED BY Symbol Address 

address    name
--------   ----
00000000   BUF$
00000000   CLK_PRDHIGH
00000000   CLK_TDDR
00000000   CLK_TDDRHIGH
00000000   CLK_TIMERNUM
00000000   DEV$
00000000   DGN$
00000000   DHL$
00000000   DHL_gChannelsAvailable
00000000   DIO$
00000000   DIO_NUMSWIBASE
00000000   DIO_NUMTSKBASE
00000000   DIO_STATIC
00000000   DPI$
00000000   GBL_BIGENDIAN
00000000   GBL_C641XL2PRIORITY
00000000   GBL_CACHE
00000000   GBL_L2CONFIGALLOC
00000000   GBL_L2MARMASK
00000000   GBL_L2MARMASK1
00000000   GBL_L2MARMASK2
00000000   GBL_L2MARMASK3
00000000   GBL_L2MARMASK4
00000000   GBL_L2MARMASK5
00000000   GBL_L2MODE
00000000   GBL_L2PRIORITY
00000000   GBL_NULL
00000000   GBL_PROCID
00000000   GBL_ROM
00000000   GBL_SUPPORTCSL
00000000   GBL_USERINIT
00000000   GIO$
00000000   HOOK$
00000000   HOOK_KNLID
00000000   HST_DSM
00000000   HST_RTDX
00000000   HWI_A_VECS
00000000   HWI_GENERATE_RESET_VEC
00000000   HWI_INT10$hwi
00000000   HWI_INT11$hwi
00000000   HWI_INT12$hwi
00000000   HWI_INT13$hwi
00000000   HWI_INT14$hwi
00000000   HWI_INT15$hwi
00000000   HWI_INT4$hwi
00000000   HWI_INT5$hwi
00000000   HWI_INT6$hwi
00000000   HWI_INT7$hwi
00000000   HWI_INT8$hwi
00000000   HWI_INT9$hwi
00000000   HWI_NMI$hwi
00000000   HWI_POLARITYMASK
00000000   HWI_RESERVED0$hwi
00000000   HWI_RESERVED1$hwi
00000000   HWI_RESET
00000000   HWI_RESET$hwi
00000000   IDL_busyObj$iB
00000000   IDL_busyObj$operation
00000000   KNL_swi$ord
00000000   KNL_swi$pri
00000000   KNL_swi$sts$unittype
00000000   KNL_swi$swi
00000000   LOG_system$datatype
00000000   LOG_system$log
00000000   MBX$
00000000   MEM_NULL
00000000   MEM_USEMPC
00000000   MSGQ$
00000000   MSGQ_USEMSGQ
00000000   OBJ$
00000000   PIP$
00000000   PIP_gNextId
00000000   POOL$
00000000   POOL_USEPOOL
00000000   PRD_A_TABBEG
00000000   PRD_A_TABEND
00000000   PRD_A_TABLEN
00000000   PRD_SWIHANDLE
00000000   RTA_fromHost$hst
00000000   RTA_fromHost$mode
00000000   RTA_toHost$hst
00000000   RTA_toHost$id
00000000   RTDX$
00000000   RTDX_MODE
00000000   RTDX_USERTDX
00000000   RTDX_USERTEXECUTION
00000000   SIO$
00000000   STS_left$iB
00000000   STS_left$unittype
00000000   STS_right$iB
00000000   STS_right$unittype
00000000   SWI_EHOOKFXN
00000000   SWI_IHOOKFXN
00000000   TSK_NUM_HOOKS
00000000   TSK_READYFXN
00000000   TSK_STACKSEG
00000000   TSK_SWITCHFXN
00000000   TSK_idle$pri
00000000   TSK_idle$sts$unittype
00000000   TSK_idle$tsk
00000000   TSK_loopback$sts$unittype
00000000   TSK_loopback$tsk
00000000   TSK_mute$sts$unittype
00000000   TSK_mute$tsk
00000000   TSK_printstat$sts$unittype
00000000   TSK_printstat$tsk
00000000   TSK_process$sts$unittype
00000000   TSK_process$tsk
00000000   UDEV$
00000000   _CLK_TDDR
00000000   _CLK_TIMERNUM
00000000   _GBL_CACHE
00000000   _HWI_RESET
00000000   hwi0
00000000   trace$log
00000001   BUF_ENABLED
00000001   CLK$
00000001   CLK_CALDIV
00000001   CLK_COUNTSPMSHIGH
00000001   CLK_HTIMEDIV
00000001   CLK_LTIMEDIV
00000001   CLK_USETIMER
00000001   GBL$
00000001   GBL_CALLCSLCFGINIT
00000001   GBL_ENABLEINST
00000001   GBL_L2CONFIGURE
00000001   GBL_boot
00000001   HST$
00000001   HST_NONE
00000001   HWI$
00000001   HWI_NMI
00000001   HWI_ZEROTAB
00000001   IDL$
00000001   IDL_USECLKIDLTIME
00000001   IDL_busyObj$filter
00000001   IDL_busyObj$iA
00000001   IDL_busyObj$iC
00000001   ISRC$
00000001   KNL_swi$dorta
00000001   KNL_swi$sts$filtmaxmult
00000001   KNL_swi$sts$filtsummult
00000001   LCK$
00000001   LOG$
00000001   LOG_ENABLED
00000001   MEM$
00000001   MEM_gNumHeap
00000001   PRD$
00000001   QUE$
00000001   RTA_fromHost$id
00000001   RTA_toHost$mode
00000001   SEM$
00000001   STS$
00000001   STS_left$filter
00000001   STS_left$iA
00000001   STS_left$iC
00000001   STS_left$operation
00000001   STS_right$filter
00000001   STS_right$iA
00000001   STS_right$iC
00000001   STS_right$operation
00000001   SWI$
00000001   SWI_A_TABLEN
00000001   SYS$
00000001   TSK$
00000001   TSK_PRIORITY
00000001   TSK_idle$ord
00000001   TSK_idle$sts$filtmaxmult
00000001   TSK_idle$sts$filtsummult
00000001   TSK_loopback$pri
00000001   TSK_loopback$sts$filtmaxmult
00000001   TSK_loopback$sts$filtsummult
00000001   TSK_mute$pri
00000001   TSK_mute$sts$filtmaxmult
00000001   TSK_mute$sts$filtsummult
00000001   TSK_printstat$pri
00000001   TSK_printstat$sts$filtmaxmult
00000001   TSK_printstat$sts$filtsummult
00000001   TSK_process$sts$filtmaxmult
00000001   TSK_process$sts$filtsummult
00000001   _CLK_USETIMER
00000001   _HWI_NMI
00000001   trace$datatype
00000002   HWI_RESERVED0
00000002   IDL_busyObj$unittype
00000002   KNL_swi$sts$filter
00000002   LOG_A_TABLEN
00000002   PIP_A_TABLEN
00000002   PIP_gNumEmbed
00000002   TSK_idle$sts$filter
00000002   TSK_loopback$sts$filter
00000002   TSK_mute$ord
00000002   TSK_mute$sts$filter
00000002   TSK_printstat$sts$filter
00000002   TSK_process$pri
00000002   TSK_process$sts$filter
00000002   _HWI_RESERVED0
00000002   _LOG_A_TABLEN
00000003   HWI_RESERVED1
00000003   TSK_loopback$ord
00000003   _HWI_RESERVED1
00000004   HWI_INT4
00000004   RTA_fromHost$framesize
00000004   TSK_process$ord
00000004   _HWI_INT4
00000005   HWI_INT5
00000005   _HWI_INT5
00000006   HWI_INT6
00000006   IDL_CALIBRERROR
00000006   TSK_printstat$ord
00000006   _HWI_INT6
00000007   HWI_INT7
00000007   _HWI_INT7
00000008   CLK_CALMULT
00000008   CLK_HTIMEMULT
00000008   HWI_INT8
00000008   _HWI_INT8
00000009   HWI_INT9
00000009   _HWI_INT9
0000000a   HWI_INT10
0000000a   _HWI_INT10
0000000b   HWI_INT11
0000000b   _HWI_INT11
0000000c   HWI_INT12
0000000c   _HWI_INT12
0000000d   HWI_INT13
0000000d   _HWI_INT13
0000000e   HWI_INT14
0000000e   _HWI_INT14
0000000f   HWI_INT15
0000000f   _HWI_INT15
00000020   CLK_TCR
00000020   hwi1
0000003e   GBL_DSPTYPE
00000040   HST_MAXFRAMESET
00000040   RTA_toHost$framesize
00000040   hwi2
00000042   GBL_FOOTPRINT
00000060   hwi3
00000064   CLK_MICROSECS
00000064   PIP_OBJSIZE
00000080   hwi4
000000a0   hwi5
000000c0   hwi6
000000e0   hwi7
000000ff   HST_MAXFRAMEALLOWED
00000100   hwi8
00000120   hwi9
00000140   hwi10
00000160   hwi11
00000180   hwi12
000001a0   hwi13
000001c0   hwi14
000001e0   hwi15
00000200   .text
00000200   LOG_system$size
00000200   ___text__
00000320   _AIC23_Loopback
0000037c   _AIC23_Mute
000003d8   _AIC23_OutGain
00000400   HST_DSMMEMSIZE
00000400   TSK_STACKSIZE
00000400   __STACK_SIZE
00000400   trace$size
00000408   RTDX_BUFMEMSIZE
0000045c   _AIC23_PowerDown
000004a4   _AIC23_SetFreq
00000568   _AIC23_rcvIsr
00000608   _AIC23_Read
000006d4   _AIC23_xmtIsr
00000778   _AIC23_Write
00000850   _AIC23_Config
000008dc   _AIC23_termIrq
00000964   _AIC23_initIrq
000009ec   _AIC23_CloseCodec
00000a3c   _AIC23_OpenCodec
000011e0   __divd
00001770   GBL_CLKTYPE
000017a0   _cos
00001900   GBL_DSPSUBTYPE
000021a0   __printfi
00002226   GBL_L2ALLOC
00002328   CLK_HTIMEPERLTIME
00002328   CLK_PRD
00002328   _CLK_PRD
00002660   _fputs
00002a80   _acos
00003698   _tskProcess
00003764   _tskStat
00003804   _tskCheck
00003908   _idlLive
0000394c   _main
00003e00   _DSK6416_init
00003fd4   _DSK6416_rget
00004000   CLK_INTBIT
00004000   PRD_SCALAR
00004004   _DSK6416_rset
00004040   _DSK6416_wait
000040a0   _DSK6416_waitusec
000040e4   _DSK6416_getVersion
000047c0   __divull
00004a80   _sqrt
00004e20   GBL_CLKIN
00004fe0   __mpyd
00005205   GBL_A_VERSION
00005260   __frcaddd
00005720   _fputc
00005720   _putc
00005800   HWI_CFGDISPATCHED
00005800   _HWI_CFGDISPATCHED
00005980   _init_cos
00005b94   _cos_table
00005bb4   _coupled
00005be0   __addd
00006060   _ldexp
000062a0   _setvbuf
000064e0   _HOSTrename
000068e0   _MCBSP_reset
00006ac0   __CSL_init
00006ca0   _frexp
00006e80   __divul
000071c0   _fseek
000074c0   _DSK6416_LED_init
00007500   _DSK6416_LED_off
00007564   _DSK6416_LED_on
000075c8   _DSK6416_LED_toggle
000077a0   __nround
00007a60   __closefile
00007ba0   _HOSTlseek
00007cc0   _TIMER_open
00007de0   _TIMER_reset
00007f00   __frcmpyd
00008000   IRAM$L
00008000   _IRAM_length
00008020   __wrt_ok
00008140   _atoi
00008260   _HOSTopen
00008360   _HOSTread
00008460   _HOSTwrite
00008560   __c6xabi_divi
00008560   __divi
00008660   __frcmpyd_div
00008760   __c6xabi_strasgi
00008760   __strasgi
00008860   _close
00008960   _fflush
00008a60   _ltoa
00008b60   _memset
00008c60   _HOSTunlink
00008d40   _MCBSP_open
00008e20   _MCBSP_start
00008f00   __cmpd
000090c0   __doflush
00009280   _memcpy
00009360   _modf
00009440   _printf
00009520   _HOSTclose
000095e0   _MCBSP_config
000096a0   __cleanup
00009760   __c6xabi_divu
00009760   __divu
000099a0   __strasg
00009a60   _exit
00009b20   _lseek
00009be0   _write
00009d60   _EMIFA_config
00009e00   _EMIFB_config
00009ea0   _MCBSP_close
00009f40   __divli
00009fe0   __fixdi
0000a080   __fixdli
0000a120   __renormd
0000a260   _rand
0000a300   __IRQ_init
0000a380   __fltlid
0000a400   __llshl
0000a480   __mpyll
0000a500   _memccpy
0000a580   _readmsg
0000a600   _unlink
0000a680   __fltid
0000a6e0   __llshru
0000a740   __remli
0000a7a0   __subcull
0000a800   _writemsg
0000a858   C$$IO$$
0000a860   _DSK6416_DIP_init
0000a864   _DSK6416_DIP_get
0000a8c0   _IRQ_disable
0000a900   ___isinf
0000a980   __negd
0000a9c0   __subd
0000aa00   _CSL6416_LIB_
0000aa20   _IRQ_clear
0000aa40   _IRQ_enable
0000aa60   _IRQ_globalDisable
0000aa80   _IRQ_globalEnable
0000aaa0   _IRQ_globalRestore
0000aac0   _MCBSP_read
0000aae0   _MCBSP_rrdy
0000ab00   _MCBSP_write
0000ab20   _MCBSP_xrdy
0000ab40   __negll
0000ab60   __nop
0000abc0   __register_lock
0000abe0   __register_unlock
0000ac00   __trunc
0000ac20   C$$EXIT
0000ac20   _abort
0000ac40   _remove
0000ac60   __IRQ_hookFetchPacket
0000ac80   IRAM$B
0000ac80   _IRAM_base
0000ac80   ___etext__
0000ac80   etext
0000dbef   GBL_TRCMASKVALUE
00011940   CLK_LTIMEMULT
00013114   __GBL_setL2CacheMode
00013260   SWI_F_enable
00013260   __SWI_lat3beg
000132cc   __SWI_lat3end
000132d0   SWI_F_post
000132d0   _SWI_post
000133dc   __SWI_lat1beg
00013448   SWI_EXECFXN
00013448   SWI_F_exec
00013470   SWI_F_iexec
00013488   __SWI_lat1end
0001348c   __SWI_lat2beg
000134f4   __SWI_lat2end
000134f8   SWI_F_run
000134f8   SWI_RUNFXN
00013740   _GBL_cslCacheInit64
00013ba0   CLK_HOOKFXN
00013ba0   HWI_F_dispatch
00013ba0   _HWI_F_dispatch
00013ba0   __HWI_lat1beg
00013d0c   __HWI_lat1end
00013d0c   __HWI_lat2beg
00013e44   __HWI_lat2end2
00013e74   __HWI_lat3end2
00013eb8   __HWI_lat2end1
00013ed0   __HWI_lat3beg
00013fe0   __HWI_lat3end1
00014000   PRD_F_swi
000142b8   PRD_F_tick
000143a0   _free
000143cc   _malloc
00014440   _realloc
00014544   _memalign
00014670   _calloc
00014700   RTA_F_getlog
00014744   RTA_F_getsts
0001478c   RTA_F_readblk
000147ac   RTA_F_writeword
000147b8   RTA_F_resetmem
000147b8   __RTA_lat1beg
000147f0   __RTA_lat1end
000147f8   RTA_F_dispatch
00014848   RTA_execute
000149c0   _KNL_run
00014c40   _SEM_pendEnterKnl
00014ea0   _MEM_free
000150e0   PIP_F_take
00015174   PIP_F_give
00015174   PIP_F_probe
00015248   PIP_F_start
00015320   _MEM_alloc
00015740   PRD_THOOKFXN
00015740   _KNL_tick
00015760   __SEM_dopost
00015940   _TSK_setup
00015b00   CLK_F_getltime
00015b14   CLK_F_isr
00015c64   CLK_F_itime
00015c64   _CLK_F_itime
00015c64   _CLK_itime
00015c80   __CLK_lat1beg
00015cac   __CLK_lat1end
00015cc0   _KNL_saveIsrFrame
00015d70   _KNL_switch
00015e18   KNL_glue
00015e60   __auto_init
00015f90   CLK_COUNTSPMS
00015f90   _CLK_COUNTSPMS
00015fc0   _TSK_exit
000161c8   _TSK_startup
00016260   _KNL_check
000162ac   __KNL_lat1beg
0001632c   _KNL_idle
0001632c   __KNL_lat1end
00016350   _KNL_max
00016380   _SEM_post
00016380   _SEM_postBinary
00016460   _CLK_measure
00016540   _KNL_exit
00016580   _KNL_enter
00016600   CLK_F_getfhtime
00016620   CLK_F_gethtime
00016620   CLK_F_getshtime
00016620   CLK_TIMEFXN
000166c0   _KNL_ipost
00016760   _KNL_post
00016800   _LCK_post
0001682c   _LCK_pend
000168a0   _SEM_postEnterKnl
00016940   _SYS_exit
000169e0   FXN_F_nop
000169e8   FXN_F_run
000169e8   _FXN_F_run
00016a38   FXN_F_zero
00016a38   _FXN_F_zero
00016a60   IDL_F_busy
00016a60   __IDL_lat1beg
00016ab0   __IDL_lat1end
00016ae0   LOG_F_event
00016ae0   _LOG_event
00016ae0   __LOG_lat1beg
00016b60   STS_F_delta
00016b60   _STS_delta
00016b98   STS_F_add
00016b98   _STS_add
00016bc4   STS_F_reset
00016bc4   _STS_reset
00016be0   IDL_F_calibrate
00016c60   _SYS_error
00016cc0   _HWI_disable
00016cd8   _HWI_enable
00016cec   _HWI_restore
00016d20   _SEM_pendBinary
00016d80   _SEM_pend
00016de0   _SYS_abort
00016e40   SYS_PUTCFXN
00016e40   _UTL_doPutc
00016ea0   _CLK_start
00016f00   IDL_CALIBRFXN
00016f00   IDL_F_stub
00016f40   RTA_F_andn
00016f60   RTA_F_or
00016f80   SYS_ABORTFXN
00016f80   _UTL_doAbort
00016fc0   _CLK_stop
00017000   GBL_USERINITFXN
00017000   GIO_CREATEFXN
00017000   GIO_DELETEFXN
00017000   GIO_PENDFXN
00017000   GIO_POSTFXN
00017000   TSK_VCREATEFXN
00017000   TSK_VDELETEFXN
00017000   TSK_VEXITFXN
00017000   _FXN_F_nop
00017020   _GBL_getVersion
00017040   IDL_F_loop
00017040   _IDL_loop
00017060   _LOG_printf
00017080   _STS_set
000170a0   SYS_ERRORFXN
000170a0   _UTL_doError
000170c0   SYS_EXITFXN
000170c0   _UTL_halt
000170e0   LNK_F_init
000170e8   LNK_F_dataPump
00017100   ___cinit__
00017100   cinit
00019488   __ftable
00019668   __tmpnams
000197a8   __ft_end
000197ac   _DSK6416_version
000197b0   _cosine
00019acc   _errno
00019b00   __IRQ_eventTable
00019b88   __IRQ_intTable
00019bc8   __IRQ_dispatchTable
00019bd0   _KNL_queues
00019c70   _KNL_dummy
00019cf0   _rcvBuffer
00019d30   _xmtBuffer
00019dd0   _TSK_ATTRS
00019dec   _TSK_config
00019e0c   _TSK_timerSem
00019e30   _OBJ_table
00019e68   _OBJ_segtab
00019ed0   __MCBSP_hDev0
00019ed4   __MCBSP_hDev1
00019ed8   __MCBSP_hDev2
00019edc   __TSK_mutex
00019f04   __MEM_mutex
00019f70   __TIMER_deviceTable
00019f94   __TIMER_hDev0
00019f98   __TIMER_hDev1
00019f9c   __TIMER_hBios
00019ff8   _SYS_exitStack
0001a034   __cleanup_ptr
0001a038   __dtors_ptr
0001a03c   ___TI_enable_exit_profile_output
0001a040   __lock
0001a044   __unlock
0001a058   CLK_A_TABBEG
0001a058   PRD_clock
0001a058   _PRD_clock
0001a05c   CLK_null
0001a060   BIOS_init
0001a060   _BIOS_init
0001a1f8   BIOS$$CLKON
0001a238   BIOS$$CLKOFF
0001a2a0   BIOS_start
0001a2a0   _BIOS_start
0001a360   _MEM_init
0001a420   _c_int00
0001a4c0   _TSK_init
0001a540   _OBJ_init
0001a560   _SYS_PUTCBEG
0001a75f   _SYS_PUTCEND
0001a760   KNL_swi$sts$stsobj
0001a760   STS_A_TABBEG
0001a760   _STS_A_TABBEG
0001a764   KNL_swi$sts
0001a770   TSK_idle$sts$stsobj
0001a774   TSK_idle$sts
0001a780   TSK_mute$sts$stsobj
0001a784   TSK_mute$sts
0001a790   TSK_loopback$sts$stsobj
0001a794   TSK_loopback$sts
0001a7a0   TSK_process$sts$stsobj
0001a7a4   TSK_process$sts
0001a7b0   TSK_printstat$sts$stsobj
0001a7b4   TSK_printstat$sts
0001a7c0   IDL_busyObj$stsobj
0001a7c4   IDL_busyObj
0001a7c4   _IDL_busyObj
0001a7d0   STS_left$stsobj
0001a7d4   STS_left
0001a7d4   _STS_left
0001a7e0   STS_right$stsobj
0001a7e4   STS_right
0001a7e4   _STS_right
0001a7f0   RTA_fromHost$buf
0001a7f0   STS_A_TABEND
0001a7f0   _STS_A_TABEND
0001a800   LOG_system$buf
0001b000   trace$buf
0001c000   TSK_idle$stack
0001c398   TSK_idle$stkptr
0001c400   TSK_loopback$stack
0001c798   TSK_loopback$stkptr
0001c800   TSK_mute$stack
0001cb98   TSK_mute$stkptr
0001cc00   TSK_printstat$stack
0001cf98   TSK_printstat$stkptr
0001d000   TSK_process$stack
0001d398   TSK_process$stkptr
0001d400   GBL_stackbeg
0001d400   _HWI_STKTOP
0001d400   __stack
0001d7f8   _HWI_STKBOTTOM
0001d7ff   GBL_stackend
0001d800   __STACK_END
0001d800   __ctypes_
0001dba1   KNL_swi$sts$maxfmt
0001dba4   $bss
0001dba4   .bss
0001dba4   _HWI_dispatchTab
0001dba4   ___bss__
0001dba9   KNL_swi$sts$sumfmt
0001dbb1   KNL_swi$sts$avgfmt
0001dbbb   TSK_idle$sts$maxfmt
0001dbc3   TSK_idle$sts$sumfmt
0001dbcb   TSK_idle$sts$avgfmt
0001dbd5   TSK_mute$sts$maxfmt
0001dbdd   TSK_mute$sts$sumfmt
0001dbe5   TSK_mute$sts$avgfmt
0001dbef   TSK_loopback$sts$maxfmt
0001dbf7   TSK_loopback$sts$sumfmt
0001dbff   TSK_loopback$sts$avgfmt
0001dc09   TSK_process$sts$maxfmt
0001dc11   TSK_process$sts$sumfmt
0001dc19   TSK_process$sts$avgfmt
0001dc23   TSK_printstat$sts$maxfmt
0001dc2b   TSK_printstat$sts$sumfmt
0001dc33   TSK_printstat$sts$avgfmt
0001dc3d   IDL_busyObj$maxfmt
0001dc40   IDL_busyObj$sumfmt
0001dc43   IDL_busyObj$avgfmt
0001dc48   STS_left$maxfmt
0001dc4b   STS_left$sumfmt
0001dc4e   STS_left$avgfmt
0001dc53   STS_right$maxfmt
0001dc56   STS_right$sumfmt
0001dc59   STS_right$avgfmt
0001dca4   IDL_D_tabbeg
0001dca8   IDL_D_calibrate
0001dcac   IDL_D_calbeg
0001dcb0   LOG_D_system
0001dcb0   _LOG_D_system
0001dcb4   PIP_D_tabbeg
0001dcb8   PIP_D_tablen
0001dcbc   CLK_R_time
0001dcc0   CLK_D_timefxn
0001dcc4   CLK_D_tabbeg
0001dcc8   CLK_D_isrhook
0001dccc   CLK_D_idletime
0001dcd0   _CLK_htimeDiv
0001dcd4   _CLK_htimeMult
0001dcd8   _CLK_ltimeDiv
0001dcdc   _CLK_ltimeMult
0001dce0   _CLK_D_dirty
0001dce4   _CLK_D_prd
0001dce8   _CLK_D_tddr
0001dcec   _CLK_D_countspms
0001dcf0   PRD_D_tick
0001dcf0   _PRD_D_tick
0001dcf4   PRD_D_cur
0001dcf8   PRD_D_elapsed
0001dcfc   PRD_D_prevtim
0001dd00   PRD_D_scalar
0001dd04   PRD_D_swihandle
0001dd08   PRD_D_tabbeg
0001dd0c   PRD_D_tablen
0001dd10   PRD_D_thook
0001dd14   RTA_D_fromHost
0001dd18   RTA_D_toHost
0001dd1c   RTA_D_logval
0001dd2c   RTA_D_stsval
0001dd38   HST_D_chanmask
0001dd3c   HST_D_tabbeg
0001dd40   HST_D_tabend
0001dd44   _GBL_procId
0001dd48   _GBL_clkIn
0001dd4c   _GBL_freq
0001dd50   _MEM_D_NUMSEGMENTS
0001dd54   _MEM_D_memtab
0001dd58   _MEM_D_freelist
0001dd5c   _MEM_D_lockaddr
0001dd60   _MEM_D_unlockaddr
0001dd64   _SYS
0001dd68   __HOOK_knlId
0001dd6c   __HOOK_NUMHOOKS
0001dd70   SWI_D_runaddr
0001dd70   _SWI_D_runaddr
0001dd70   _SWI_data
0001dd74   SWI_D_execaddr
0001dd74   _SWI_D_execaddr
0001dd78   SWI_D_curmask
0001dd78   _SWI_D_curmask
0001dd7c   SWI_D_curset
0001dd7c   _SWI_D_curset
0001dd80   SWI_D_lock
0001dd80   _SWI_D_lock
0001dd84   SWI_D_curmbox
0001dd88   SWI_D_curfxn
0001dd88   _SWI_D_curfxn
0001dd8c   SWI_D_rdybeg
0001dd8c   _SWI_D_rdybeg
0001dd90   SWI_D_inswi
0001dd90   _SWI_D_inswi
0001dd94   SWI_D_rdytab
0001de0c   _KNL_wFlag
0001de10   _KNL_wList
0001de14   _KNL_alarm
0001de18   _KNL_setpri
0001de1c   _KNL_inactive
0001de20   _KNL_priority
0001de24   _KNL_set
0001de28   _KNL_curtask
0001de2c   _KNL_prevtask
0001de30   _KNL_curtime
0001de34   _KNL_swiptr
0001de38   _KNL_curqueue
0001de3c   _KNL_maxqueue
0001de40   _KNL_tswitchfxn
0001de44   _KNL_tcreatefxn
0001de48   _KNL_tdeletefxn
0001de4c   _KNL_treadyfxn
0001de50   _KNL_idlefxn
0001de54   _MEM_memtab
0001de60   HST_DSMBUFSEG
0001de60   IRAM
0001de60   MEM_MALLOCSEG
0001de60   MEM_SEGZERO
0001de60   RTDX_DATAMEMSEG
0001de60   _IRAM
0001de60   _SEG0
0001de64   RTA_fromHost$pipe$dtab
0001de70   RTA_toHost$pipe$dtab
0001de7c   _AIC23_ControlHnd
0001de80   _AIC23_DataHnd
0001de84   _rcvRead
0001de88   _rcvWrite
0001de8c   _xmtRead
0001de90   _xmtWrite
0001de94   _gie
0001de98   HWI_D_spsave
0001de98   _HWI_D_spsave
0001de98   _HWI_data
0001dea4   _HWI_D_inhwi
0001dea8   HWI_D_bss
0001deac   HWI_D_ccmask
0001deb0   _TSK_nTasks
0001deb4   _TSK_pid
0001deb8   _TSK
0001dec8   _CLK_DFLTMICROSECS
0001decc   _CLK_D_microseconds
0001ded0   _SYS_exitStackPtr
0001ded4   _SYS_exitStackTop
0001dee8   _CLK_htimePerLtime
0001def0   IDL_D_busyObj
0001def4   _MEM
0001def8   ___end__
0001def8   end
0001df04   TSK_idle
0001df04   _TSK_idle
0001df64   TSK_mute
0001df64   _TSK_mute
0001dfc4   TSK_loopback
0001dfc4   _TSK_loopback
0001e024   TSK_process
0001e024   _TSK_process
0001e084   TSK_printstat
0001e084   _TSK_printstat
0001e0d8   __CIOBUF_
0001e1f8   RTA_toHost$buf
0001e2f8   PIP_A_TABBEG
0001e2f8   RTA_fromHost$pipe
0001e2f8   _PIP_A_TABBEG
0001e2fc   RTA_fromHost$pipe$rd
0001e328   RTA_fromHost$pipe$aaa
0001e32c   RTA_fromHost$pipe$wr
0001e358   RTA_fromHost$pipe$bbb
0001e35c   RTA_toHost$pipe
0001e360   RTA_toHost$pipe$rd
0001e38c   RTA_toHost$pipe$aaa
0001e390   RTA_toHost$pipe$wr
0001e3bc   RTA_toHost$pipe$bbb
0001e3c0   PIP_A_TABEND
0001e3c0   _PIP_A_TABEND
0001e448   SEM_rcv
0001e448   _SEM_rcv
0001e474   SEM_xmt
0001e474   _SEM_xmt
0001e494   LOG_A_TABBEG
0001e494   LOG_system
0001e494   _LOG_A_TABBEG
0001e494   _LOG_system
0001e4ac   _trace
0001e4ac   trace
0001e4c4   KNL_swi
0001e4c4   LOG_A_TABEND
0001e4c4   SWI_A_TABBEG
0001e4c4   _KNL_swi
0001e4c4   _LOG_A_TABEND
0001e4f0   SWI_A_TABEND
0001e510   HST_A_TABBEG
0001e510   _HST_A_TABBEG
0001e514   RTA_fromHost
0001e514   _RTA_fromHost
0001e51c   RTA_toHost
0001e51c   _RTA_toHost
0001e524   HST_A_TABEND
0001e524   IDL_A_TABBEG
0001e524   IDL_cpuLoad
0001e524   _HST_A_TABEND
0001e524   _IDL_cpuLoad
0001e528   LNK_dataPump
0001e528   _LNK_dataPump
0001e52c   RTA_dispatcher
0001e52c   _RTA_dispatcher
0001e530   IDL_live
0001e530   _IDL_live
0001e534   IDL_END
0001e538   IDL_A_CALBEG
0001e538   IDL_cpuLoad$
0001e53c   LNK_dataPump$
0001e540   RTA_dispatcher$
0001e544   IDL_live$
0001e548   IDL_END$
0001e54c   SYS$config
0001e55c   TRC_cinit
0001e560   TRC_R_mask
0001e560   _TRC_R_mask
0001e564   GBL_initdone
0001e568   .data
0001e568   LNK_dspFrameRequestMask
0001e568   ___data__
0001e56c   LNK_dspFrameReadyMask
0001e570   ___edata__
0001e570   edata
000afc80   GBL_FREQ
01940000   CLK_HIRESREGS
01940000   CLK_REGS
01940000   _CLK_REGS
08204653   HWI_INTRMULTHIGH
310718a4   HWI_INTRMULTLOW
ffffffff   SDRAM
ffffffff   _SDRAM
ffffffff   ___TI_pprof_out_hndl
ffffffff   ___TI_prof_data_size
ffffffff   ___TI_prof_data_start
ffffffff   ___binit__
ffffffff   ___c_args__
ffffffff   ___pinit__
ffffffff   binit
ffffffff   pinit

[901 symbols]
